target datalayout = "e-m:e-p270:32:32-p271:32:32-p272:64:64-i64:64-i128:128-f80:128-n8:16:32:64-S128"
target triple = "x86_64-pc-linux-gnu"

@bio_err = external global ptr, align 8
@.str.51 = private unnamed_addr constant [2 x i8] c"\0A\00", align 1
@.str.182 = private unnamed_addr constant [18 x i8] c"Generating %s key\00", align 1
@.str.183 = private unnamed_addr constant [15 x i8] c" with %d bits\0A\00", align 1
@.str.184 = private unnamed_addr constant [102 x i8] c"Warning: generating random key material may take a long time\0Aif the system has a poor entropy source\0A\00", align 1
@.str.185 = private unnamed_addr constant [29 x i8] c"%s: Error generating %s key\0A\00", align 1
@.str.186 = private unnamed_addr constant [11 x i8] c"asymmetric\00", align 1

; Function Attrs: nounwind uwtable
define dso_local ptr @app_keygen(ptr noundef %0, ptr noundef %1, i32 noundef %2, i32 noundef %3) #0 {
  %5 = alloca ptr, align 8
  %6 = alloca ptr, align 8
  %7 = alloca i32, align 4
  %8 = alloca i32, align 4
  %9 = alloca ptr, align 8
  store ptr %0, ptr %5, align 8, !tbaa !143
  store ptr %1, ptr %6, align 8, !tbaa !9
  store i32 %2, ptr %7, align 4, !tbaa !25
  store i32 %3, ptr %8, align 4, !tbaa !25
  call void @llvm.lifetime.start.p0(i64 8, ptr %9) #12
  store ptr null, ptr %9, align 8, !tbaa !67
  %10 = load i32, ptr %8, align 4, !tbaa !25
  %11 = icmp ne i32 %10, 0
  br i1 %11, label %12, label %29

12:                                               ; preds = %4
  %13 = load ptr, ptr %6, align 8, !tbaa !9
  %14 = icmp ne ptr %13, null
  br i1 %14, label %15, label %29

15:                                               ; preds = %12
  %16 = load ptr, ptr @bio_err, align 8, !tbaa !35
  %17 = load ptr, ptr %6, align 8, !tbaa !9
  %18 = call i32 (ptr, ptr, ...) @BIO_printf(ptr noundef %16, ptr noundef @.str.182, ptr noundef %17)
  %19 = load i32, ptr %7, align 4, !tbaa !25
  %20 = icmp sgt i32 %19, 0
  br i1 %20, label %21, label %25

21:                                               ; preds = %15
  %22 = load ptr, ptr @bio_err, align 8, !tbaa !35
  %23 = load i32, ptr %7, align 4, !tbaa !25
  %24 = call i32 (ptr, ptr, ...) @BIO_printf(ptr noundef %22, ptr noundef @.str.183, i32 noundef %23)
  br label %28

25:                                               ; preds = %15
  %26 = load ptr, ptr @bio_err, align 8, !tbaa !35
  %27 = call i32 (ptr, ptr, ...) @BIO_printf(ptr noundef %26, ptr noundef @.str.51)
  br label %28

28:                                               ; preds = %25, %21
  br label %29

29:                                               ; preds = %28, %12, %4
  %30 = call i32 @RAND_status()
  %31 = icmp ne i32 %30, 0
  br i1 %31, label %35, label %32

32:                                               ; preds = %29
  %33 = load ptr, ptr @bio_err, align 8, !tbaa !35
  %34 = call i32 (ptr, ptr, ...) @BIO_printf(ptr noundef %33, ptr noundef @.str.184)
  br label %35

35:                                               ; preds = %32, %29
  %36 = load ptr, ptr %5, align 8, !tbaa !143
  %37 = call i32 @EVP_PKEY_keygen(ptr noundef %36, ptr noundef %9)
  %38 = icmp sle i32 %37, 0
  br i1 %38, label %39, label %50

39:                                               ; preds = %35
  %40 = load ptr, ptr @bio_err, align 8, !tbaa !35
  %41 = call ptr @opt_getprog()
  %42 = load ptr, ptr %6, align 8, !tbaa !9
  %43 = icmp ne ptr %42, null
  br i1 %43, label %44, label %46

44:                                               ; preds = %39
  %45 = load ptr, ptr %6, align 8, !tbaa !9
  br label %47

46:                                               ; preds = %39
  br label %47

47:                                               ; preds = %46, %44
  %48 = phi ptr [ %45, %44 ], [ @.str.186, %46 ]
  %49 = call i32 (ptr, ptr, ...) @BIO_printf(ptr noundef %40, ptr noundef @.str.185, ptr noundef %41, ptr noundef %48)
  br label %50

50:                                               ; preds = %47, %35
  %51 = load ptr, ptr %9, align 8, !tbaa !67
  call void @llvm.lifetime.end.p0(i64 8, ptr %9) #12
  ret ptr %51
}