; Function Attrs: nounwind uwtable
define dso_local ptr @app_keygen(ptr noundef %0, ptr noundef %1, i32 noundef %2, i32 noundef %3) local_unnamed_addr #0 {
  %5 = alloca ptr, align 8
  call void @llvm.lifetime.start.p0(i64 8, ptr nonnull %5) #27
  store ptr null, ptr %5, align 8, !tbaa !37
  %6 = icmp ne i32 %3, 0
  %7 = icmp ne ptr %1, null
  %or.cond = and i1 %7, %6
  br i1 %or.cond, label %8, label %17

8:                                                ; preds = %4
  %9 = load ptr, ptr @bio_err, align 8, !tbaa !26
  %10 = tail call i32 (ptr, ptr, ...) @BIO_printf(ptr noundef %9, ptr noundef nonnull @.str.182, ptr noundef nonnull %1) #27
  %11 = icmp sgt i32 %2, 0
  %12 = load ptr, ptr @bio_err, align 8, !tbaa !26
  br i1 %11, label %13, label %15

13:                                               ; preds = %8
  %14 = tail call i32 (ptr, ptr, ...) @BIO_printf(ptr noundef %12, ptr noundef nonnull @.str.183, i32 noundef %2) #27
  br label %17

15:                                               ; preds = %8
  %16 = tail call i32 (ptr, ptr, ...) @BIO_printf(ptr noundef %12, ptr noundef nonnull @.str.51) #27
  br label %17

17:                                               ; preds = %13, %15, %4
  %18 = tail call i32 @RAND_status() #27
  %.not = icmp eq i32 %18, 0
  br i1 %.not, label %19, label %22

19:                                               ; preds = %17
  %20 = load ptr, ptr @bio_err, align 8, !tbaa !26
  %21 = tail call i32 (ptr, ptr, ...) @BIO_printf(ptr noundef %20, ptr noundef nonnull @.str.184) #27
  br label %22

22:                                               ; preds = %19, %17
  %23 = call i32 @EVP_PKEY_keygen(ptr noundef %0, ptr noundef nonnull %5) #27
  %24 = icmp slt i32 %23, 1
  br i1 %24, label %25, label %30

25:                                               ; preds = %22
  %26 = load ptr, ptr @bio_err, align 8, !tbaa !26
  %27 = call ptr @opt_getprog() #27
  %28 = select i1 %7, ptr %1, ptr @.str.186
  %29 = call i32 (ptr, ptr, ...) @BIO_printf(ptr noundef %26, ptr noundef nonnull @.str.185, ptr noundef %27, ptr noundef nonnull %28) #27
  br label %30

30:                                               ; preds = %25, %22
  %31 = load ptr, ptr %5, align 8, !tbaa !37
  call void @llvm.lifetime.end.p0(i64 8, ptr nonnull %5) #27
  ret ptr %31
}